; Function Attrs: mustprogress uwtable
define hidden noundef i32 @_ZN14family_manager12mk_family_idERK6symbol(ptr noundef nonnull align 8 dereferenceable(56) %0, ptr noundef nonnull readonly align 8 captures(none) dereferenceable(8) %1) local_unnamed_addr #7 align 2 {
  %3 = alloca %"struct.symbol_table<int>::key_data", align 8
  %4 = alloca i32, align 4
  call void @llvm.lifetime.start.p0(i64 4, ptr nonnull %4) #38
  %5 = getelementptr inbounds nuw i8, ptr %0, i64 8
  %.sroa.01.0.copyload = load ptr, ptr %1, align 8, !tbaa !50
  call void @llvm.lifetime.start.p0(i64 16, ptr nonnull %3) #38
  store ptr %.sroa.01.0.copyload, ptr %3, align 8, !tbaa !50
  %6 = call noundef ptr @_ZNK14core_hashtableIN12symbol_tableIiE10hash_entryENS1_18key_data_hash_procENS1_16key_data_eq_procEE9find_coreERKNS1_8key_dataE(ptr noundef nonnull align 8 dereferenceable(40) %5, ptr noundef nonnull align 8 dereferenceable(12) %3)
  %.not = icmp eq ptr %6, null
  br i1 %.not, label %9, label %_ZNK12symbol_tableIiE4findE6symbolRi.exit.thread

_ZNK12symbol_tableIiE4findE6symbolRi.exit.thread: ; preds = %2
  %7 = getelementptr inbounds nuw i8, ptr %6, i64 8
  %8 = load i32, ptr %7, align 8, !tbaa !75
  call void @llvm.lifetime.end.p0(i64 16, ptr nonnull %3) #38
  br label %29

9:                                                ; preds = %2
  call void @llvm.lifetime.end.p0(i64 16, ptr nonnull %3) #38
  %10 = load i32, ptr %0, align 8, !tbaa !78
  store i32 %10, ptr %4, align 4, !tbaa !24
  %11 = add nsw i32 %10, 1
  store i32 %11, ptr %0, align 8, !tbaa !78
  %.sroa.0.0.copyload = load ptr, ptr %1, align 8, !tbaa !50
  call void @_ZN12symbol_tableIiE6insertE6symbolRKi(ptr noundef nonnull align 8 dereferenceable(40) %5, ptr %.sroa.0.0.copyload, ptr noundef nonnull align 4 dereferenceable(4) %4)
  %12 = getelementptr inbounds nuw i8, ptr %0, i64 48
  %13 = load ptr, ptr %12, align 8, !tbaa !90
  %14 = icmp eq ptr %13, null
  br i1 %14, label %21, label %15

15:                                               ; preds = %9
  %16 = getelementptr inbounds i8, ptr %13, i64 -4
  %17 = load i32, ptr %16, align 4, !tbaa !24
  %18 = getelementptr inbounds i8, ptr %13, i64 -8
  %19 = load i32, ptr %18, align 4, !tbaa !24
  %20 = icmp eq i32 %17, %19
  br i1 %20, label %21, label %_ZN6vectorI6symbolLb0EjE9push_backERKS0_.exit

21:                                               ; preds = %15, %9
  call void @_ZN6vectorI6symbolLb0EjE13expand_vectorEv(ptr noundef nonnull align 8 dereferenceable(8) %12)
  %.pre.i = load ptr, ptr %12, align 8, !tbaa !90
  %.phi.trans.insert.i = getelementptr inbounds i8, ptr %.pre.i, i64 -4
  %.pre2.i = load i32, ptr %.phi.trans.insert.i, align 4, !tbaa !24
  br label %_ZN6vectorI6symbolLb0EjE9push_backERKS0_.exit

_ZN6vectorI6symbolLb0EjE9push_backERKS0_.exit:    ; preds = %15, %21
  %22 = phi i32 [ %.pre2.i, %21 ], [ %17, %15 ]
  %23 = phi ptr [ %.pre.i, %21 ], [ %13, %15 ]
  %24 = getelementptr inbounds i8, ptr %23, i64 -4
  %25 = zext i32 %22 to i64
  %26 = getelementptr inbounds nuw %class.symbol, ptr %23, i64 %25
  %27 = load i64, ptr %1, align 8, !tbaa !50
  store i64 %27, ptr %26, align 8, !tbaa !50
  %28 = add i32 %22, 1
  store i32 %28, ptr %24, align 4, !tbaa !24
  %.0.pre = load i32, ptr %4, align 4, !tbaa !24
  br label %29

29:                                               ; preds = %_ZNK12symbol_tableIiE4findE6symbolRi.exit.thread, %_ZN6vectorI6symbolLb0EjE9push_backERKS0_.exit
  %.0 = phi i32 [ %8, %_ZNK12symbol_tableIiE4findE6symbolRi.exit.thread ], [ %.0.pre, %_ZN6vectorI6symbolLb0EjE9push_backERKS0_.exit ]
  call void @llvm.lifetime.end.p0(i64 4, ptr nonnull %4) #38
  ret i32 %.0
}